LIBRARY libnoise

EXPORTS
V  ?LatLonToXYZ@noise@@YAXNNAAN00@Z @ 1
V  ?GradientNoise3D@noise@@YANNNNHHHH@Z @ 2
V  ?IntValueNoise3D@noise@@YAHHHHH@Z @ 3
V  ?ValueNoise3D@noise@@YANHHHH@Z @ 6
V  ??0Add@module@noise@@QAE@XZ @ 9
V  ?GetValue@Add@module@noise@@UBENNNN@Z @ 10
V  ?GetSourceModule@Module@module@noise@@UBEABV123@H@Z @ 11
V  ?SetSourceModule@Module@module@noise@@UAEXHABV123@@Z @ 12
V  ?GetSourceModuleCount@Add@module@noise@@UBEHXZ @ 13
V  ??0Blend@module@noise@@QAE@XZ @ 14
V  ?GetValue@Blend@module@noise@@UBENNNN@Z @ 15
V  ?GetSourceModuleCount@Blend@module@noise@@UBEHXZ @ 16
V  ??0Cache@module@noise@@QAE@XZ @ 17
V  ?GetValue@Cache@module@noise@@UBENNNN@Z @ 18
V  ?GetSourceModuleCount@Cache@module@noise@@UBEHXZ @ 19
V  ?SetSourceModule@Cache@module@noise@@UAEXHABVModule@23@@Z @ 20
V  ??0Checkerboard@module@noise@@QAE@XZ @ 21
V  ?GetValue@Checkerboard@module@noise@@UBENNNN@Z @ 22
V  ?GetSourceModuleCount@Checkerboard@module@noise@@UBEHXZ @ 24
V  ??0Clamp@module@noise@@QAE@XZ @ 25
V  ?GetValue@Clamp@module@noise@@UBENNNN@Z @ 26
V  ?SetBounds@Clamp@module@noise@@QAEXNN@Z @ 27
V  ?GetSourceModuleCount@Clamp@module@noise@@UBEHXZ @ 28
V  ??0Const@module@noise@@QAE@XZ @ 29
V  ?GetSourceModuleCount@Const@module@noise@@UBEHXZ @ 30
V  ?GetValue@Const@module@noise@@UBENNNN@Z @ 31
V  ??0Curve@module@noise@@QAE@XZ @ 32
V  ?AddControlPoint@Curve@module@noise@@QAEXNN@Z @ 34
V  ?ClearAllControlPoints@Curve@module@noise@@QAEXXZ @ 35
V  ?FindInsertionPos@Curve@module@noise@@IAEHN@Z @ 36
V  ?GetValue@Curve@module@noise@@UBENNNN@Z @ 37
V  ?InsertAtPos@Curve@module@noise@@IAEXHNN@Z @ 38
V  ?GetSourceModuleCount@Curve@module@noise@@UBEHXZ @ 42
V  ??0Cylinders@module@noise@@QAE@XZ @ 43
V  ?GetValue@Cylinders@module@noise@@UBENNNN@Z @ 44
V  ?GetSourceModuleCount@Cylinders@module@noise@@UBEHXZ @ 46
V  ??0Displace@module@noise@@QAE@XZ @ 47
V  ?GetValue@Displace@module@noise@@UBENNNN@Z @ 48
V  ?GetSourceModuleCount@Displace@module@noise@@UBEHXZ @ 49
V  ??0Exponent@module@noise@@QAE@XZ @ 50
V  ?GetValue@Exponent@module@noise@@UBENNNN@Z @ 51
V  ?GetSourceModuleCount@Exponent@module@noise@@UBEHXZ @ 52
V  ??0Invert@module@noise@@QAE@XZ @ 53
V  ?GetValue@Invert@module@noise@@UBENNNN@Z @ 54
V  ?GetSourceModuleCount@Invert@module@noise@@UBEHXZ @ 55
V  ??0Max@module@noise@@QAE@XZ @ 56
V  ?GetValue@Max@module@noise@@UBENNNN@Z @ 57
V  ?GetSourceModuleCount@Max@module@noise@@UBEHXZ @ 59
V  ??0Min@module@noise@@QAE@XZ @ 60
V  ?GetValue@Min@module@noise@@UBENNNN@Z @ 61
V  ?GetSourceModuleCount@Min@module@noise@@UBEHXZ @ 62
V  ??0Module@module@noise@@QAE@H@Z @ 63
V  ??0Multiply@module@noise@@QAE@XZ @ 64
V  ?GetValue@Multiply@module@noise@@UBENNNN@Z @ 65
V  ?GetSourceModuleCount@Multiply@module@noise@@UBEHXZ @ 66
V  ??0Perlin@module@noise@@QAE@XZ @ 67
V  ?GetValue@Perlin@module@noise@@UBENNNN@Z @ 68
V  ?GetSourceModuleCount@Perlin@module@noise@@UBEHXZ @ 69
V  ??0Power@module@noise@@QAE@XZ @ 70
V  ?GetValue@Power@module@noise@@UBENNNN@Z @ 71
V  ?GetSourceModuleCount@Power@module@noise@@UBEHXZ @ 72
V  ??0RidgedMulti@module@noise@@QAE@XZ @ 73
V  ?GetValue@RidgedMulti@module@noise@@UBENNNN@Z @ 74
V  ?GetSourceModuleCount@RidgedMulti@module@noise@@UBEHXZ @ 75
V  ??0RotatePoint@module@noise@@QAE@XZ @ 76
V  ?GetValue@RotatePoint@module@noise@@UBENNNN@Z @ 77
V  ?SetAngles@RotatePoint@module@noise@@QAEXNNN@Z @ 78
V  ?GetSourceModuleCount@RotatePoint@module@noise@@UBEHXZ @ 79
V  ??0ScaleBias@module@noise@@QAE@XZ @ 80
V  ?GetValue@ScaleBias@module@noise@@UBENNNN@Z @ 81
V  ?GetSourceModuleCount@ScaleBias@module@noise@@UBEHXZ @ 82
V  ??0ScalePoint@module@noise@@QAE@XZ @ 83
V  ?GetValue@ScalePoint@module@noise@@UBENNNN@Z @ 84
V  ?GetSourceModuleCount@ScalePoint@module@noise@@UBEHXZ @ 85
V  ??0Select@module@noise@@QAE@XZ @ 86
V  ?GetValue@Select@module@noise@@UBENNNN@Z @ 87
V  ?SetBounds@Select@module@noise@@QAEXNN@Z @ 88
v  ?SetEdgeFalloff@Select@module@noise@@QAEXN@Z @ 89
v  ?GetSourceModuleCount@Select@module@noise@@UBEHXZ @ 90
v  ??0Spheres@module@noise@@QAE@XZ @ 91
v  ?GetValue@Spheres@module@noise@@UBENNNN@Z @ 92
v  ?GetSourceModuleCount@Spheres@module@noise@@UBEHXZ @ 93
v  ??0Terrace@module@noise@@QAE@XZ @ 94
v  ?FindInsertionPos@Terrace@module@noise@@IAEHN@Z @ 98
v  ?GetValue@Terrace@module@noise@@UBENNNN@Z @ 99
v  ?InsertAtPos@Terrace@module@noise@@IAEXHN@Z @ 100
v  ?GetSourceModuleCount@Terrace@module@noise@@UBEHXZ @ 103
v  ??0Turbulence@module@noise@@QAE@XZ @ 104
v  ?GetFrequency@Turbulence@module@noise@@QBENXZ @ 105
v  ?GetSeed@Turbulence@module@noise@@QBEHXZ @ 106
v  ?GetValue@Turbulence@module@noise@@UBENNNN@Z @ 107
v  ?SetSeed@Turbulence@module@noise@@QAEXH@Z @ 109
v  ?GetSourceModuleCount@Turbulence@module@noise@@UBEHXZ @ 115
v  ??0Voronoi@module@noise@@QAE@XZ @ 116
v  ?GetValue@Voronoi@module@noise@@UBENNNN@Z @ 117
v  ?GetSourceModuleCount@Voronoi@module@noise@@UBEHXZ @ 118
v  ??0Abs@module@noise@@QAE@XZ @ 119
v  ?GetValue@Abs@module@noise@@UBENNNN@Z @ 120
v  ?GetSourceModuleCount@Abs@module@noise@@UBEHXZ @ 121
v  ??0Line@model@noise@@QAE@XZ @ 122
v  ?GetValue@Line@model@noise@@QBENN@Z @ 123
v  ??0Plane@model@noise@@QAE@XZ @ 124
v  ?GetValue@Plane@model@noise@@QBENNN@Z @ 125
v  ??0Sphere@model@noise@@QAE@XZ @ 126
v  ?GetValue@Sphere@model@noise@@QBENNN@Z @ 127
v  ??0Cylinder@model@noise@@QAE@XZ @ 128
v  ?GetValue@Cylinder@model@noise@@QBENNN@Z @ 129
  ??_7Add@module@noise@@6B@ @ 130
  ??_7Blend@module@noise@@6B@ @ 131
  ??_7Cache@module@noise@@6B@ @ 132
  ??_7Checkerboard@module@noise@@6B@ @ 133
  ??_7Clamp@module@noise@@6B@ @ 134
  ??_7Const@module@noise@@6B@ @ 135
  ??_7Curve@module@noise@@6B@ @ 136
  ??_7Module@module@noise@@6B@ @ 137
  ??_7Cylinders@module@noise@@6B@ @ 138
  ??_7Displace@module@noise@@6B@ @ 139
  ??_7Exponent@module@noise@@6B@ @ 140
  ??_7Invert@module@noise@@6B@ @ 141
  ??_7Max@module@noise@@6B@ @ 142
  ??_7Min@module@noise@@6B@ @ 143
  ??_7Multiply@module@noise@@6B@ @ 144
  ??_7Perlin@module@noise@@6B@ @ 145
  ??_7Power@module@noise@@6B@ @ 146
  ??_7RidgedMulti@module@noise@@6B@ @ 147
  ??_7RotatePoint@module@noise@@6B@ @ 148
  ??_7ScaleBias@module@noise@@6B@ @ 149
  ??_7ScalePoint@module@noise@@6B@ @ 150
  ??_7Select@module@noise@@6B@ @ 151
  ??_7Spheres@module@noise@@6B@ @ 152
  ??_7Terrace@module@noise@@6B@ @ 153
  ??_7Turbulence@module@noise@@6B@ @ 154
  ??_7Voronoi@module@noise@@6B@ @ 155
  ??_7Abs@module@noise@@6B@ @ 156
v  ??0Billow@module@noise@@QAE@XZ @ 159
v  ?GetValue@Billow@module@noise@@UBENNNN@Z @ 160
v  ?GetSourceModuleCount@Billow@module@noise@@UBEHXZ @ 161
  ??_7Billow@module@noise@@6B@ @ 163
  ?CalcSpectralWeights@RidgedMulti@module@noise@@IAEXXZ @ 164
v  ??0TranslatePoint@module@noise@@QAE@XZ @ 166
v  ?GetValue@TranslatePoint@module@noise@@UBENNNN@Z @ 167
v  ?GetSourceModuleCount@TranslatePoint@module@noise@@UBEHXZ @ 168
v  ??_7TranslatePoint@module@noise@@6B@ @ 169
  ?AddControlPoint@Terrace@module@noise@@QAEXN@Z @ 170
  ?ClearAllControlPoints@Terrace@module@noise@@QAEXXZ @ 171
  ?MakeControlPoints@Terrace@module@noise@@QAEXH@Z @ 172
v  ?GradientCoherentNoise3D@noise@@YANNNNHW4NoiseQuality@1@@Z @ 173
v  ?ValueCoherentNoise3D@noise@@YANNNNHW4NoiseQuality@1@@Z @ 174
  ??1Terrace@module@noise@@UAE@XZ @ 175
  ??1Curve@module@noise@@UAE@XZ @ 176
  ??1Module@module@noise@@UAE@XZ @ 177
